target datalayout = "e-m:e-p270:32:32-p271:32:32-p272:64:64-i64:64-i128:128-f80:128-n8:16:32:64-S128"
target triple = "x86_64-pc-linux-gnu"

@hf_logcat_text_priority = internal global i32 0, align 4

; Function Attrs: null_pointer_is_valid sspstrong uwtable
define internal i32 @get_priority(ptr noundef %0, ptr noundef %1, ptr noundef %2, ptr noundef %3, i32 noundef %4, ptr noundef %5) #0 {
  %7 = alloca ptr, align 8
  %8 = alloca ptr, align 8
  %9 = alloca ptr, align 8
  %10 = alloca ptr, align 8
  %11 = alloca i32, align 4
  %12 = alloca ptr, align 8
  %13 = alloca i32, align 4
  %14 = alloca ptr, align 8
  %15 = alloca i32, align 4
  store ptr %0, ptr %7, align 8
  store ptr %1, ptr %8, align 8
  store ptr %2, ptr %9, align 8
  store ptr %3, ptr %10, align 8
  store i32 %4, ptr %11, align 4
  store ptr %5, ptr %12, align 8
  call void @llvm.lifetime.start.p0(i64 4, ptr %13) #7
  call void @llvm.lifetime.start.p0(i64 8, ptr %14) #7
  %16 = load ptr, ptr %7, align 8
  %17 = load i32, ptr %11, align 4
  %18 = sext i32 %17 to i64
  %19 = getelementptr i8, ptr %16, i64 %18
  %20 = load ptr, ptr %8, align 8
  %21 = call ptr @g_strstr_len(ptr noundef %19, i64 noundef -1, ptr noundef %20)
  store ptr %21, ptr %14, align 8
  call void @llvm.lifetime.start.p0(i64 4, ptr %15) #7
  %22 = load ptr, ptr %14, align 8
  %23 = load ptr, ptr %7, align 8
  %24 = ptrtoint ptr %22 to i64
  %25 = ptrtoint ptr %23 to i64
  %26 = sub i64 %24, %25
  %27 = trunc i64 %26 to i32
  store i32 %27, ptr %15, align 4
  %28 = load ptr, ptr %14, align 8
  %29 = load i8, ptr %28, align 1
  %30 = sext i8 %29 to i32
  switch i32 %30, label %37 [
    i32 73, label %31
    i32 86, label %32
    i32 68, label %33
    i32 87, label %34
    i32 69, label %35
    i32 70, label %36
  ]

31:                                               ; preds = %6
  store i32 4, ptr %13, align 4
  br label %38

32:                                               ; preds = %6
  store i32 2, ptr %13, align 4
  br label %38

33:                                               ; preds = %6
  store i32 3, ptr %13, align 4
  br label %38

34:                                               ; preds = %6
  store i32 5, ptr %13, align 4
  br label %38

35:                                               ; preds = %6
  store i32 6, ptr %13, align 4
  br label %38

36:                                               ; preds = %6
  store i32 7, ptr %13, align 4
  br label %38

37:                                               ; preds = %6
  store i32 0, ptr %13, align 4
  br label %38

38:                                               ; preds = %37, %36, %35, %34, %33, %32, %31
  %39 = load ptr, ptr %10, align 8
  %40 = load i32, ptr @hf_logcat_text_priority, align 4
  %41 = load ptr, ptr %9, align 8
  %42 = load i32, ptr %15, align 4
  %43 = load i32, ptr %13, align 4
  %44 = call ptr @proto_tree_add_uint(ptr noundef %39, i32 noundef %40, ptr noundef %41, i32 noundef %42, i32 noundef 1, i32 noundef %43)
  %45 = load i32, ptr %15, align 4
  %46 = add i32 %45, 1
  call void @llvm.lifetime.end.p0(i64 4, ptr %15) #7
  call void @llvm.lifetime.end.p0(i64 8, ptr %14) #7
  call void @llvm.lifetime.end.p0(i64 4, ptr %13) #7
  ret i32 %46
}