; Function Attrs: null_pointer_is_valid sspstrong uwtable
define internal noundef i32 @get_priority(ptr noundef %0, ptr noundef %1, ptr noundef %2, ptr noundef %3, i32 noundef %4, ptr readnone captures(none) %5) #0 {
  %7 = sext i32 %4 to i64
  %8 = getelementptr i8, ptr %0, i64 %7
  %9 = tail call ptr @g_strstr_len(ptr noundef %8, i64 noundef -1, ptr noundef %1)
  %10 = load i8, ptr %9, align 1
  switch i8 %10, label %16 [
    i8 73, label %17
    i8 86, label %11
    i8 68, label %12
    i8 87, label %13
    i8 69, label %14
    i8 70, label %15
  ]

11:                                               ; preds = %6
  br label %17

12:                                               ; preds = %6
  br label %17

13:                                               ; preds = %6
  br label %17

14:                                               ; preds = %6
  br label %17

15:                                               ; preds = %6
  br label %17

16:                                               ; preds = %6
  br label %17

17:                                               ; preds = %6, %16, %15, %14, %13, %12, %11
  %.0 = phi i32 [ 0, %16 ], [ 7, %15 ], [ 6, %14 ], [ 5, %13 ], [ 3, %12 ], [ 2, %11 ], [ 4, %6 ]
  %18 = ptrtoint ptr %9 to i64
  %19 = ptrtoint ptr %0 to i64
  %20 = sub i64 %18, %19
  %21 = trunc i64 %20 to i32
  %22 = load i32, ptr @hf_logcat_text_priority, align 4
  %23 = tail call ptr @proto_tree_add_uint(ptr noundef %3, i32 noundef %22, ptr noundef %2, i32 noundef %21, i32 noundef 1, i32 noundef %.0)
  %24 = add i32 %21, 1
  ret i32 %24
}